target datalayout = "e-m:e-p270:32:32-p271:32:32-p272:64:64-i64:64-i128:128-f80:128-n8:16:32:64-S128"
target triple = "x86_64-pc-linux-gnu"

%"struct.llvm::detail::PunnedPointer.382" = type { [8 x i8] }
%"class.clang::ASTDumper" = type <{ %"class.clang::ASTNodeTraverser", %"class.clang::TextNodeDumper", ptr, i8, [7 x i8] }>
%"class.clang::ASTNodeTraverser" = type { i8, i8, i32 }
%"class.clang::TextNodeDumper" = type { %"class.clang::TextTreeStructure", ptr, i8, ptr, i32, ptr, ptr, %"struct.clang::PrintingPolicy", ptr }
%"class.clang::TextTreeStructure" = type { ptr, i8, %"class.llvm::SmallVector", i8, i8, %"class.std::__cxx11::basic_string" }
%"class.llvm::SmallVector" = type { %"class.llvm::SmallVectorImpl", %"struct.llvm::SmallVectorStorage" }
%"class.llvm::SmallVectorImpl" = type { %"class.llvm::SmallVectorTemplateBase" }
%"class.llvm::SmallVectorTemplateBase" = type { %"class.llvm::SmallVectorTemplateCommon" }
%"class.llvm::SmallVectorTemplateCommon" = type { %"class.llvm::SmallVectorBase" }
%"class.llvm::SmallVectorBase" = type { ptr, i32, i32 }
%"struct.llvm::SmallVectorStorage" = type { [1024 x i8] }
%"class.std::__cxx11::basic_string" = type { %"struct.std::__cxx11::basic_string<char>::_Alloc_hider", i64, %union.anon }
%"struct.std::__cxx11::basic_string<char>::_Alloc_hider" = type { ptr }
%union.anon = type { i64, [8 x i8] }
%"struct.clang::PrintingPolicy" = type { i64, ptr }
%"class.llvm::StringRef" = type { ptr, i64 }
%"class.clang::SourceLocation" = type { i32 }
%class.anon.529 = type <{ ptr, ptr, i8, [7 x i8] }>
%"class.llvm::PointerIntPair.377" = type { %"struct.llvm::detail::PunnedPointer.378" }
%"struct.llvm::detail::PunnedPointer.378" = type { [8 x i8] }
%"class.llvm::PointerUnion" = type { %"class.llvm::pointer_union_detail::PointerUnionMembers" }
%"class.llvm::pointer_union_detail::PointerUnionMembers" = type { %"class.llvm::pointer_union_detail::PointerUnionMembers.379" }
%"class.llvm::pointer_union_detail::PointerUnionMembers.379" = type { %"class.llvm::pointer_union_detail::PointerUnionMembers.380" }
%"class.llvm::pointer_union_detail::PointerUnionMembers.380" = type { %"class.llvm::PointerIntPair.381" }
%"class.llvm::PointerIntPair.381" = type { %"struct.llvm::detail::PunnedPointer.382" }
%"class.std::function" = type { %"class.std::_Function_base", ptr }
%"class.std::_Function_base" = type { %"union.std::_Any_data", ptr }
%"union.std::_Any_data" = type { %"union.std::_Nocopy_types" }
%"union.std::_Nocopy_types" = type { { i64, i64 } }
%"class.clang::Decl" = type <{ ptr, %"class.llvm::PointerIntPair.377", %"class.llvm::PointerUnion", %"class.clang::SourceLocation", i32, i8, [7 x i8] }>

@.str.1 = private unnamed_addr constant [1 x i8] zeroinitializer, align 1

; Function Attrs: mustprogress nounwind uwtable
define linkonce_odr hidden noundef ptr @_ZNK4llvm25SmallVectorTemplateCommonISt8functionIFvbEEvE10getFirstElEv(ptr noundef nonnull align 8 dereferenceable(16) %0) #0 comdat align 2 {
  %2 = alloca ptr, align 8
  store ptr %0, ptr %2, align 8
  %3 = load ptr, ptr %2, align 8
  %4 = getelementptr inbounds i8, ptr %3, i64 16
  ret ptr %4
}

; Function Attrs: mustprogress nounwind uwtable
define linkonce_odr hidden void @_ZNSt14_Function_baseD2Ev(ptr noundef nonnull align 8 dereferenceable(24) %0) unnamed_addr #0 comdat align 2 {
  %2 = alloca ptr, align 8
  store ptr %0, ptr %2, align 8
  %3 = load ptr, ptr %2, align 8
  %4 = getelementptr inbounds nuw %"class.std::_Function_base", ptr %3, i32 0, i32 1
  %5 = load ptr, ptr %4, align 8
  %6 = icmp ne ptr %5, null
  br i1 %6, label %7, label %13

7:                                                ; preds = %1
  %8 = getelementptr inbounds nuw %"class.std::_Function_base", ptr %3, i32 0, i32 1
  %9 = load ptr, ptr %8, align 8
  %10 = getelementptr inbounds nuw %"class.std::_Function_base", ptr %3, i32 0, i32 0
  %11 = getelementptr inbounds nuw %"class.std::_Function_base", ptr %3, i32 0, i32 0
  %12 = call noundef zeroext i1 %9(ptr noundef nonnull align 8 dereferenceable(16) %10, ptr noundef nonnull align 8 dereferenceable(16) %11, i32 noundef 3)
  br label %13

13:                                               ; preds = %7, %1
  ret void
}

; Function Attrs: mustprogress nounwind uwtable
define linkonce_odr hidden noundef zeroext i1 @_ZNK4llvm25SmallVectorTemplateCommonISt8functionIFvbEEvE7isSmallEv(ptr noundef nonnull align 8 dereferenceable(16) %0) #0 comdat align 2 {
  %2 = alloca ptr, align 8
  store ptr %0, ptr %2, align 8
  %3 = load ptr, ptr %2, align 8
  %4 = getelementptr inbounds nuw %"class.llvm::SmallVectorBase", ptr %3, i32 0, i32 0
  %5 = load ptr, ptr %4, align 8
  %6 = call noundef ptr @_ZNK4llvm25SmallVectorTemplateCommonISt8functionIFvbEEvE10getFirstElEv(ptr noundef nonnull align 8 dereferenceable(16) %3)
  %7 = icmp eq ptr %5, %6
  ret i1 %7
}

; Function Attrs: mustprogress nounwind uwtable
define linkonce_odr hidden void @_ZNSt8functionIFvbEED2Ev(ptr noundef nonnull align 8 dereferenceable(32) %0) unnamed_addr #0 comdat align 2 {
  %2 = alloca ptr, align 8
  store ptr %0, ptr %2, align 8
  %3 = load ptr, ptr %2, align 8
  call void @_ZNSt14_Function_baseD2Ev(ptr noundef nonnull align 8 dereferenceable(24) %3) #9
  ret void
}

; Function Attrs: mustprogress nounwind uwtable
define linkonce_odr hidden void @_ZN4llvm15SmallVectorImplISt8functionIFvbEEED2Ev(ptr noundef nonnull align 8 dereferenceable(16) %0) unnamed_addr #0 comdat align 2 {
  %2 = alloca ptr, align 8
  store ptr %0, ptr %2, align 8
  %3 = load ptr, ptr %2, align 8
  %4 = call noundef zeroext i1 @_ZNK4llvm25SmallVectorTemplateCommonISt8functionIFvbEEvE7isSmallEv(ptr noundef nonnull align 8 dereferenceable(16) %3)
  br i1 %4, label %7, label %5

5:                                                ; preds = %1
  %6 = call noundef ptr @_ZN4llvm25SmallVectorTemplateCommonISt8functionIFvbEEvE5beginEv(ptr noundef nonnull align 8 dereferenceable(16) %3)
  call void @free(ptr noundef %6) #9
  br label %7

7:                                                ; preds = %5, %1
  ret void
}

; Function Attrs: mustprogress nounwind uwtable
define linkonce_odr hidden void @_ZN4llvm23SmallVectorTemplateBaseISt8functionIFvbEELb0EE13destroy_rangeEPS3_S5_(ptr noundef %0, ptr noundef %1) #0 comdat align 2 {
  %3 = alloca ptr, align 8
  %4 = alloca ptr, align 8
  store ptr %0, ptr %3, align 8
  store ptr %1, ptr %4, align 8
  br label %5

5:                                                ; preds = %9, %2
  %6 = load ptr, ptr %3, align 8
  %7 = load ptr, ptr %4, align 8
  %8 = icmp ne ptr %6, %7
  br i1 %8, label %9, label %13

9:                                                ; preds = %5
  %10 = load ptr, ptr %4, align 8
  %11 = getelementptr inbounds %"class.std::function", ptr %10, i32 -1
  store ptr %11, ptr %4, align 8
  %12 = load ptr, ptr %4, align 8
  call void @_ZNSt8functionIFvbEED2Ev(ptr noundef nonnull align 8 dereferenceable(32) %12) #9
  br label %5, !llvm.loop !6

13:                                               ; preds = %5
  ret void
}

; Function Attrs: mustprogress nounwind uwtable
define linkonce_odr hidden noundef ptr @_ZN4llvm25SmallVectorTemplateCommonISt8functionIFvbEEvE3endEv(ptr noundef nonnull align 8 dereferenceable(16) %0) #0 comdat align 2 {
  %2 = alloca ptr, align 8
  store ptr %0, ptr %2, align 8
  %3 = load ptr, ptr %2, align 8
  %4 = call noundef ptr @_ZN4llvm25SmallVectorTemplateCommonISt8functionIFvbEEvE5beginEv(ptr noundef nonnull align 8 dereferenceable(16) %3)
  %5 = call noundef i64 @_ZNK4llvm15SmallVectorBaseIjE4sizeEv(ptr noundef nonnull align 8 dereferenceable(16) %3)
  %6 = getelementptr inbounds %"class.std::function", ptr %4, i64 %5
  ret ptr %6
}

; Function Attrs: mustprogress nounwind uwtable
define linkonce_odr hidden noundef ptr @_ZN4llvm25SmallVectorTemplateCommonISt8functionIFvbEEvE5beginEv(ptr noundef nonnull align 8 dereferenceable(16) %0) #0 comdat align 2 {
  %2 = alloca ptr, align 8
  store ptr %0, ptr %2, align 8
  %3 = load ptr, ptr %2, align 8
  %4 = getelementptr inbounds nuw %"class.llvm::SmallVectorBase", ptr %3, i32 0, i32 0
  %5 = load ptr, ptr %4, align 8
  ret ptr %5
}

; Function Attrs: mustprogress nounwind uwtable
define linkonce_odr hidden void @_ZN4llvm11SmallVectorISt8functionIFvbEELj32EED2Ev(ptr noundef nonnull align 8 dereferenceable(1040) %0) unnamed_addr #0 comdat align 2 {
  %2 = alloca ptr, align 8
  store ptr %0, ptr %2, align 8
  %3 = load ptr, ptr %2, align 8
  %4 = call noundef ptr @_ZN4llvm25SmallVectorTemplateCommonISt8functionIFvbEEvE5beginEv(ptr noundef nonnull align 8 dereferenceable(16) %3)
  %5 = call noundef ptr @_ZN4llvm25SmallVectorTemplateCommonISt8functionIFvbEEvE3endEv(ptr noundef nonnull align 8 dereferenceable(16) %3)
  call void @_ZN4llvm23SmallVectorTemplateBaseISt8functionIFvbEELb0EE13destroy_rangeEPS3_S5_(ptr noundef %4, ptr noundef %5)
  call void @_ZN4llvm15SmallVectorImplISt8functionIFvbEEED2Ev(ptr noundef nonnull align 8 dereferenceable(16) %3) #9
  ret void
}

; Function Attrs: mustprogress nounwind uwtable
define linkonce_odr hidden noundef i64 @_ZNSt11char_traitsIcE6lengthEPKc(ptr noundef %0) #0 comdat align 2 {
  %2 = alloca ptr, align 8
  store ptr %0, ptr %2, align 8
  %3 = load ptr, ptr %2, align 8
  %4 = call i64 @strlen(ptr noundef %3) #9
  ret i64 %4
}

; Function Attrs: mustprogress nounwind uwtable
define linkonce_odr hidden void @_ZN5clang17TextTreeStructureD2Ev(ptr noundef nonnull align 8 dereferenceable(1096) %0) unnamed_addr #0 comdat align 2 {
  %2 = alloca ptr, align 8
  store ptr %0, ptr %2, align 8
  %3 = load ptr, ptr %2, align 8
  %4 = getelementptr inbounds nuw %"class.clang::TextTreeStructure", ptr %3, i32 0, i32 5
  call void @_ZNSt7__cxx1112basic_stringIcSt11char_traitsIcESaIcEED1Ev(ptr noundef nonnull align 8 dereferenceable(32) %4) #9
  %5 = getelementptr inbounds nuw %"class.clang::TextTreeStructure", ptr %3, i32 0, i32 2
  call void @_ZN4llvm11SmallVectorISt8functionIFvbEELj32EED2Ev(ptr noundef nonnull align 8 dereferenceable(1040) %5) #9
  ret void
}

; Function Attrs: mustprogress nounwind uwtable
define linkonce_odr hidden void @_ZN4llvm9StringRefC2EPKc(ptr noundef nonnull align 8 dereferenceable(16) %0, ptr noundef %1) unnamed_addr #0 comdat align 2 {
  %3 = alloca ptr, align 8
  %4 = alloca ptr, align 8
  store ptr %0, ptr %3, align 8
  store ptr %1, ptr %4, align 8
  %5 = load ptr, ptr %3, align 8
  %6 = getelementptr inbounds nuw %"class.llvm::StringRef", ptr %5, i32 0, i32 0
  %7 = load ptr, ptr %4, align 8
  store ptr %7, ptr %6, align 8
  %8 = getelementptr inbounds nuw %"class.llvm::StringRef", ptr %5, i32 0, i32 1
  %9 = load ptr, ptr %4, align 8
  %10 = icmp ne ptr %9, null
  br i1 %10, label %11, label %14

11:                                               ; preds = %2
  %12 = load ptr, ptr %4, align 8
  %13 = call noundef i64 @_ZNSt11char_traitsIcE6lengthEPKc(ptr noundef %12)
  br label %15

14:                                               ; preds = %2
  br label %15

15:                                               ; preds = %14, %11
  %16 = phi i64 [ %13, %11 ], [ 0, %14 ]
  store i64 %16, ptr %8, align 8
  ret void
}

; Function Attrs: mustprogress nounwind uwtable
define linkonce_odr hidden noundef nonnull align 8 dereferenceable(1168) ptr @_ZN5clang9ASTDumper17doGetNodeDelegateEv(ptr noundef nonnull align 8 dereferenceable(1185) %0) #0 comdat align 2 {
  %2 = alloca ptr, align 8
  store ptr %0, ptr %2, align 8
  %3 = load ptr, ptr %2, align 8
  %4 = getelementptr inbounds nuw %"class.clang::ASTDumper", ptr %3, i32 0, i32 1
  ret ptr %4
}

; Function Attrs: mustprogress nounwind uwtable
define linkonce_odr hidden noundef nonnull align 8 dereferenceable(1185) ptr @_ZN5clang16ASTNodeTraverserINS_9ASTDumperENS_14TextNodeDumperEE10getDerivedEv(ptr noundef nonnull align 4 dereferenceable(8) %0) #0 comdat align 2 {
  %2 = alloca ptr, align 8
  store ptr %0, ptr %2, align 8
  %3 = load ptr, ptr %2, align 8
  ret ptr %3
}

; Function Attrs: mustprogress nounwind uwtable
define linkonce_odr hidden void @_ZN5clang14TextNodeDumperD2Ev(ptr noundef nonnull align 8 dereferenceable(1168) %0) unnamed_addr #0 comdat align 2 {
  %2 = alloca ptr, align 8
  store ptr %0, ptr %2, align 8
  %3 = load ptr, ptr %2, align 8
  call void @_ZN5clang17TextTreeStructureD2Ev(ptr noundef nonnull align 8 dereferenceable(1096) %3) #9
  ret void
}

; Function Attrs: mustprogress nounwind uwtable
define linkonce_odr hidden void @_ZN5clang17TextTreeStructure8AddChildIZNS_16ASTNodeTraverserINS_9ASTDumperENS_14TextNodeDumperEE5VisitEPKNS_4DeclEbEUlvE_EEvT_(ptr noundef nonnull align 8 dereferenceable(1096) %0, ptr noundef byval(%class.anon.529) align 8 %1) #0 comdat align 2 {
  %3 = alloca ptr, align 8
  %4 = alloca %"class.llvm::StringRef", align 8
  %5 = alloca %class.anon.529, align 8
  store ptr %0, ptr %3, align 8
  %6 = load ptr, ptr %3, align 8
  call void @_ZN4llvm9StringRefC2EPKc(ptr noundef nonnull align 8 dereferenceable(16) %4, ptr noundef @.str.1)
  call void @llvm.memcpy.p0.p0.i64(ptr align 8 %5, ptr align 8 %1, i64 24, i1 false)
  %7 = getelementptr inbounds nuw { ptr, i64 }, ptr %4, i32 0, i32 0
  %8 = load ptr, ptr %7, align 8
  %9 = getelementptr inbounds nuw { ptr, i64 }, ptr %4, i32 0, i32 1
  %10 = load i64, ptr %9, align 8
  call void @_ZN5clang17TextTreeStructure8AddChildIZNS_16ASTNodeTraverserINS_9ASTDumperENS_14TextNodeDumperEE5VisitEPKNS_4DeclEbEUlvE_EEvN4llvm9StringRefET_(ptr noundef nonnull align 8 dereferenceable(1096) %6, ptr %8, i64 %10, ptr noundef byval(%class.anon.529) align 8 %5)
  ret void
}

; Function Attrs: mustprogress nounwind uwtable
define linkonce_odr hidden noundef nonnull align 8 dereferenceable(1168) ptr @_ZN5clang16ASTNodeTraverserINS_9ASTDumperENS_14TextNodeDumperEE15getNodeDelegateEv(ptr noundef nonnull align 4 dereferenceable(8) %0) #0 comdat align 2 {
  %2 = alloca ptr, align 8
  store ptr %0, ptr %2, align 8
  %3 = load ptr, ptr %2, align 8
  %4 = call noundef nonnull align 8 dereferenceable(1185) ptr @_ZN5clang16ASTNodeTraverserINS_9ASTDumperENS_14TextNodeDumperEE10getDerivedEv(ptr noundef nonnull align 4 dereferenceable(8) %3)
  %5 = call noundef nonnull align 8 dereferenceable(1168) ptr @_ZN5clang9ASTDumper17doGetNodeDelegateEv(ptr noundef nonnull align 8 dereferenceable(1185) %4)
  ret ptr %5
}

; Function Attrs: mustprogress nounwind uwtable
define linkonce_odr hidden noundef zeroext i1 @_ZNK5clang4Decl10isImplicitEv(ptr noundef nonnull align 8 dereferenceable(33) %0) #0 comdat align 2 {
  %2 = alloca ptr, align 8
  store ptr %0, ptr %2, align 8
  %3 = load ptr, ptr %2, align 8
  %4 = getelementptr inbounds nuw %"class.clang::Decl", ptr %3, i32 0, i32 4
  %5 = load i32, ptr %4, align 4
  %6 = lshr i32 %5, 9
  %7 = and i32 %6, 1
  %8 = icmp ne i32 %7, 0
  ret i1 %8
}

; Function Attrs: mustprogress nounwind uwtable
define linkonce_odr hidden void @_ZN5clang16ASTNodeTraverserINS_9ASTDumperENS_14TextNodeDumperEEC2Ev(ptr noundef nonnull align 4 dereferenceable(8) %0) unnamed_addr #0 comdat align 2 {
  %2 = alloca ptr, align 8
  store ptr %0, ptr %2, align 8
  %3 = load ptr, ptr %2, align 8
  %4 = getelementptr inbounds nuw %"class.clang::ASTNodeTraverser", ptr %3, i32 0, i32 0
  store i8 0, ptr %4, align 4
  %5 = getelementptr inbounds nuw %"class.clang::ASTNodeTraverser", ptr %3, i32 0, i32 1
  store i8 0, ptr %5, align 1
  %6 = getelementptr inbounds nuw %"class.clang::ASTNodeTraverser", ptr %3, i32 0, i32 2
  store i32 0, ptr %6, align 4
  ret void
}

; Function Attrs: mustprogress nounwind uwtable
define linkonce_odr hidden void @_ZN5clang9ASTDumperD2Ev(ptr noundef nonnull align 8 dereferenceable(1185) %0) unnamed_addr #0 comdat align 2 {
  %2 = alloca ptr, align 8
  store ptr %0, ptr %2, align 8
  %3 = load ptr, ptr %2, align 8
  %4 = getelementptr inbounds nuw %"class.clang::ASTDumper", ptr %3, i32 0, i32 1
  call void @_ZN5clang14TextNodeDumperD2Ev(ptr noundef nonnull align 8 dereferenceable(1168) %4) #9
  ret void
}

; Function Attrs: mustprogress nounwind uwtable
define linkonce_odr hidden void @_ZN5clang16ASTNodeTraverserINS_9ASTDumperENS_14TextNodeDumperEE5VisitEPKNS_4DeclEb(ptr noundef nonnull align 4 dereferenceable(8) %0, ptr noundef %1, i1 noundef zeroext %2) #0 comdat align 2 {
  %4 = alloca ptr, align 8
  %5 = alloca ptr, align 8
  %6 = alloca i8, align 1
  %7 = alloca %class.anon.529, align 8
  store ptr %0, ptr %4, align 8
  store ptr %1, ptr %5, align 8
  %8 = zext i1 %2 to i8
  store i8 %8, ptr %6, align 1
  %9 = load ptr, ptr %4, align 8
  %10 = getelementptr inbounds nuw %"class.clang::ASTNodeTraverser", ptr %9, i32 0, i32 2
  %11 = load i32, ptr %10, align 4
  %12 = icmp eq i32 %11, 1
  br i1 %12, label %13, label %17

13:                                               ; preds = %3
  %14 = load ptr, ptr %5, align 8
  %15 = call noundef zeroext i1 @_ZNK5clang4Decl10isImplicitEv(ptr noundef nonnull align 8 dereferenceable(33) %14)
  br i1 %15, label %16, label %17

16:                                               ; preds = %13
  br label %26

17:                                               ; preds = %13, %3
  %18 = call noundef nonnull align 8 dereferenceable(1168) ptr @_ZN5clang16ASTNodeTraverserINS_9ASTDumperENS_14TextNodeDumperEE15getNodeDelegateEv(ptr noundef nonnull align 4 dereferenceable(8) %9)
  %19 = getelementptr inbounds nuw %class.anon.529, ptr %7, i32 0, i32 0
  store ptr %9, ptr %19, align 8
  %20 = getelementptr inbounds nuw %class.anon.529, ptr %7, i32 0, i32 1
  %21 = load ptr, ptr %5, align 8
  store ptr %21, ptr %20, align 8
  %22 = getelementptr inbounds nuw %class.anon.529, ptr %7, i32 0, i32 2
  %23 = load i8, ptr %6, align 1
  %24 = trunc i8 %23 to i1
  %25 = zext i1 %24 to i8
  store i8 %25, ptr %22, align 8
  call void @_ZN5clang17TextTreeStructure8AddChildIZNS_16ASTNodeTraverserINS_9ASTDumperENS_14TextNodeDumperEE5VisitEPKNS_4DeclEbEUlvE_EEvT_(ptr noundef nonnull align 8 dereferenceable(1096) %18, ptr noundef byval(%class.anon.529) align 8 %7)
  br label %26

26:                                               ; preds = %17, %16
  ret void
}

; Function Attrs: mustprogress nounwind uwtable
define linkonce_odr hidden void @_ZN5clang9ASTDumperC2ERN4llvm11raw_ostreamERKNS_10ASTContextEb(ptr noundef nonnull align 8 dereferenceable(1185) %0, ptr noundef nonnull align 8 dereferenceable(48) %1, ptr noundef nonnull align 8 dereferenceable(23096) %2, i1 noundef zeroext %3) unnamed_addr #0 comdat align 2 {
  %5 = alloca ptr, align 8
  %6 = alloca ptr, align 8
  %7 = alloca ptr, align 8
  %8 = alloca i8, align 1
  store ptr %0, ptr %5, align 8
  store ptr %1, ptr %6, align 8
  store ptr %2, ptr %7, align 8
  %9 = zext i1 %3 to i8
  store i8 %9, ptr %8, align 1
  %10 = load ptr, ptr %5, align 8
  call void @_ZN5clang16ASTNodeTraverserINS_9ASTDumperENS_14TextNodeDumperEEC2Ev(ptr noundef nonnull align 4 dereferenceable(8) %10) #9
  %11 = getelementptr inbounds nuw %"class.clang::ASTDumper", ptr %10, i32 0, i32 1
  %12 = load ptr, ptr %6, align 8
  %13 = load ptr, ptr %7, align 8
  %14 = load i8, ptr %8, align 1
  %15 = trunc i8 %14 to i1
  call void @_ZN5clang14TextNodeDumperC1ERN4llvm11raw_ostreamERKNS_10ASTContextEb(ptr noundef nonnull align 8 dereferenceable(1168) %11, ptr noundef nonnull align 8 dereferenceable(48) %12, ptr noundef nonnull align 8 dereferenceable(23096) %13, i1 noundef zeroext %15)
  %16 = getelementptr inbounds nuw %"class.clang::ASTDumper", ptr %10, i32 0, i32 2
  %17 = load ptr, ptr %6, align 8
  store ptr %17, ptr %16, align 8
  %18 = getelementptr inbounds nuw %"class.clang::ASTDumper", ptr %10, i32 0, i32 3
  %19 = load i8, ptr %8, align 1
  %20 = trunc i8 %19 to i1
  %21 = zext i1 %20 to i8
  store i8 %21, ptr %18, align 8
  ret void
}

; Function Attrs: mustprogress nounwind uwtable
define dso_local void @_ZNK5clang4Decl9dumpColorEv(ptr noundef nonnull align 8 dereferenceable(33) %0) #0 align 2 {
  %2 = alloca ptr, align 8
  %3 = alloca ptr, align 8
  %4 = alloca %"class.clang::ASTDumper", align 8
  store ptr %0, ptr %2, align 8
  %5 = load ptr, ptr %2, align 8
  %6 = call noundef nonnull align 8 dereferenceable(23096) ptr @_ZNK5clang4Decl13getASTContextEv(ptr noundef nonnull align 8 dereferenceable(33) %5) #12
  store ptr %6, ptr %3, align 8
  %7 = call noundef nonnull align 8 dereferenceable(96) ptr @_ZN4llvm4errsEv()
  %8 = load ptr, ptr %3, align 8
  call void @_ZN5clang9ASTDumperC2ERN4llvm11raw_ostreamERKNS_10ASTContextEb(ptr noundef nonnull align 8 dereferenceable(1185) %4, ptr noundef nonnull align 8 dereferenceable(48) %7, ptr noundef nonnull align 8 dereferenceable(23096) %8, i1 noundef zeroext true)
  call void @_ZN5clang16ASTNodeTraverserINS_9ASTDumperENS_14TextNodeDumperEE5VisitEPKNS_4DeclEb(ptr noundef nonnull align 4 dereferenceable(8) %4, ptr noundef %5, i1 noundef zeroext false)
  call void @_ZN5clang9ASTDumperD2Ev(ptr noundef nonnull align 8 dereferenceable(1185) %4) #9
  ret void
}