; Function Attrs: mustprogress nounwind uwtable
define dso_local void @_ZNK5clang4Decl9dumpColorEv(ptr noundef nonnull align 8 dereferenceable(33) %0) local_unnamed_addr #0 align 2 {
  %2 = alloca %class.anon.529, align 8
  %3 = alloca %"class.clang::ASTDumper", align 8
  %4 = tail call noundef nonnull align 8 dereferenceable(23096) ptr @_ZNK5clang4Decl13getASTContextEv(ptr noundef nonnull align 8 dereferenceable(33) %0) #22
  %5 = tail call noundef nonnull align 8 dereferenceable(96) ptr @_ZN4llvm4errsEv() #18
  store i8 0, ptr %3, align 8
  %6 = getelementptr inbounds nuw i8, ptr %3, i64 1
  store i8 0, ptr %6, align 1
  %7 = getelementptr inbounds nuw i8, ptr %3, i64 4
  store i32 0, ptr %7, align 4
  %8 = getelementptr inbounds nuw i8, ptr %3, i64 8
  call void @_ZN5clang14TextNodeDumperC1ERN4llvm11raw_ostreamERKNS_10ASTContextEb(ptr noundef nonnull align 8 dereferenceable(1168) %8, ptr noundef nonnull align 8 dereferenceable(48) %5, ptr noundef nonnull align 8 dereferenceable(23096) %4, i1 noundef zeroext true) #18
  %9 = getelementptr inbounds nuw i8, ptr %3, i64 1176
  store ptr %5, ptr %9, align 8
  %10 = getelementptr inbounds nuw i8, ptr %3, i64 1184
  store i8 1, ptr %10, align 8
  %11 = load i32, ptr %7, align 4
  %12 = icmp eq i32 %11, 1
  br i1 %12, label %13, label %17

13:                                               ; preds = %1
  %14 = getelementptr inbounds nuw i8, ptr %0, i64 28
  %15 = load i32, ptr %14, align 4
  %16 = and i32 %15, 512
  %.not.i = icmp eq i32 %16, 0
  br i1 %.not.i, label %17, label %_ZN5clang16ASTNodeTraverserINS_9ASTDumperENS_14TextNodeDumperEE5VisitEPKNS_4DeclEb.exit

17:                                               ; preds = %13, %1
  call void @llvm.lifetime.start.p0(i64 24, ptr nonnull %2)
  store ptr %3, ptr %2, align 8
  %.sroa.44.0..sroa_idx.i = getelementptr inbounds i8, ptr %2, i64 8
  store ptr %0, ptr %.sroa.44.0..sroa_idx.i, align 8
  %.sroa.5.0..sroa_idx.i = getelementptr inbounds i8, ptr %2, i64 16
  store i8 0, ptr %.sroa.5.0..sroa_idx.i, align 8
  call void @_ZN5clang17TextTreeStructure8AddChildIZNS_16ASTNodeTraverserINS_9ASTDumperENS_14TextNodeDumperEE5VisitEPKNS_4DeclEbEUlvE_EEvN4llvm9StringRefET_(ptr noundef nonnull align 8 dereferenceable(1096) %8, ptr nonnull @.str.1, i64 0, ptr noundef nonnull byval(%class.anon.529) align 8 %2) #21
  call void @llvm.lifetime.end.p0(i64 24, ptr nonnull %2)
  br label %_ZN5clang16ASTNodeTraverserINS_9ASTDumperENS_14TextNodeDumperEE5VisitEPKNS_4DeclEb.exit

_ZN5clang16ASTNodeTraverserINS_9ASTDumperENS_14TextNodeDumperEE5VisitEPKNS_4DeclEb.exit: ; preds = %13, %17
  %18 = getelementptr inbounds i8, ptr %3, i64 1072
  call void @_ZNSt7__cxx1112basic_stringIcSt11char_traitsIcESaIcEED1Ev(ptr noundef nonnull align 8 dereferenceable(32) %18) #18
  %19 = getelementptr inbounds i8, ptr %3, i64 24
  %20 = load ptr, ptr %19, align 8
  %21 = call noundef i64 @_ZNK4llvm15SmallVectorBaseIjE4sizeEv(ptr noundef nonnull align 8 dereferenceable(16) %19) #18
  %.not4.i.i.i.i.i = icmp eq i64 %21, 0
  br i1 %.not4.i.i.i.i.i, label %_ZN4llvm23SmallVectorTemplateBaseISt8functionIFvbEELb0EE13destroy_rangeEPS3_S5_.exit.i.i.i.i, label %.lr.ph.i.preheader.i.i.i.i

.lr.ph.i.preheader.i.i.i.i:                       ; preds = %_ZN5clang16ASTNodeTraverserINS_9ASTDumperENS_14TextNodeDumperEE5VisitEPKNS_4DeclEb.exit
  %22 = getelementptr inbounds %"class.std::function", ptr %20, i64 %21
  br label %.lr.ph.i.i.i.i.i

.lr.ph.i.i.i.i.i:                                 ; preds = %_ZNSt8functionIFvbEED2Ev.exit.i.i.i.i.i, %.lr.ph.i.preheader.i.i.i.i
  %.05.i.i.i.i.i = phi ptr [ %23, %_ZNSt8functionIFvbEED2Ev.exit.i.i.i.i.i ], [ %22, %.lr.ph.i.preheader.i.i.i.i ]
  %23 = getelementptr inbounds i8, ptr %.05.i.i.i.i.i, i64 -32
  %24 = getelementptr inbounds i8, ptr %.05.i.i.i.i.i, i64 -16
  %25 = load ptr, ptr %24, align 8
  %.not.i.i.i.i.i.i.i = icmp eq ptr %25, null
  br i1 %.not.i.i.i.i.i.i.i, label %_ZNSt8functionIFvbEED2Ev.exit.i.i.i.i.i, label %26

26:                                               ; preds = %.lr.ph.i.i.i.i.i
  %27 = call noundef zeroext i1 %25(ptr noundef nonnull align 8 dereferenceable(16) %23, ptr noundef nonnull align 8 dereferenceable(16) %23, i32 noundef 3) #18
  br label %_ZNSt8functionIFvbEED2Ev.exit.i.i.i.i.i

_ZNSt8functionIFvbEED2Ev.exit.i.i.i.i.i:          ; preds = %26, %.lr.ph.i.i.i.i.i
  %.not.i.i.i.i.i = icmp eq ptr %20, %23
  br i1 %.not.i.i.i.i.i, label %_ZN4llvm23SmallVectorTemplateBaseISt8functionIFvbEELb0EE13destroy_rangeEPS3_S5_.exit.i.i.i.i, label %.lr.ph.i.i.i.i.i, !llvm.loop !14

_ZN4llvm23SmallVectorTemplateBaseISt8functionIFvbEELb0EE13destroy_rangeEPS3_S5_.exit.i.i.i.i: ; preds = %_ZNSt8functionIFvbEED2Ev.exit.i.i.i.i.i, %_ZN5clang16ASTNodeTraverserINS_9ASTDumperENS_14TextNodeDumperEE5VisitEPKNS_4DeclEb.exit
  %28 = load ptr, ptr %19, align 8
  %29 = getelementptr inbounds i8, ptr %3, i64 40
  %30 = icmp eq ptr %28, %29
  br i1 %30, label %_ZN5clang9ASTDumperD2Ev.exit, label %31

31:                                               ; preds = %_ZN4llvm23SmallVectorTemplateBaseISt8functionIFvbEELb0EE13destroy_rangeEPS3_S5_.exit.i.i.i.i
  call void @free(ptr noundef %28) #18
  br label %_ZN5clang9ASTDumperD2Ev.exit

_ZN5clang9ASTDumperD2Ev.exit:                     ; preds = %_ZN4llvm23SmallVectorTemplateBaseISt8functionIFvbEELb0EE13destroy_rangeEPS3_S5_.exit.i.i.i.i, %31
  ret void
}